target datalayout = "e-m:e-p270:32:32-p271:32:32-p272:64:64-i64:64-i128:128-f80:128-n8:16:32:64-S128"
target triple = "x86_64-pc-linux-gnu"

%struct.EVP_AES_GCM_CTX = type { %union.anon.1, i32, i32, %struct.gcm128_context, ptr, i32, i32, i32, i32, i32, i64, ptr }
%union.anon.1 = type { double, [240 x i8] }
%struct.gcm128_context = type { %union.anon.2, %union.anon.2, %union.anon.2, %union.anon.2, %union.anon.2, %union.anon.2, [16 x %struct.u128], %struct.gcm_funcs_st, i32, i32, ptr, ptr, [48 x i8] }
%union.anon.2 = type { [2 x i64] }
%struct.u128 = type { i64, i64 }
%struct.gcm_funcs_st = type { ptr, ptr, ptr }

@.str = private unnamed_addr constant [30 x i8] c"../openssl/crypto/evp/e_aes.c\00", align 1
@__func__.aesni_gcm_init_key = private unnamed_addr constant [19 x i8] c"aesni_gcm_init_key\00", align 1

; Function Attrs: nounwind uwtable
define internal i32 @aesni_gcm_init_key(ptr noundef %0, ptr noundef %1, ptr noundef %2, i32 noundef %3) #0 {
  %5 = alloca i32, align 4
  %6 = alloca ptr, align 8
  %7 = alloca ptr, align 8
  %8 = alloca ptr, align 8
  %9 = alloca i32, align 4
  %10 = alloca ptr, align 8
  %11 = alloca i32, align 4
  %12 = alloca i32, align 4
  store ptr %0, ptr %6, align 8, !tbaa !7
  store ptr %1, ptr %7, align 8, !tbaa !10
  store ptr %2, ptr %8, align 8, !tbaa !10
  store i32 %3, ptr %9, align 4, !tbaa !3
  call void @llvm.lifetime.start.p0(i64 8, ptr %10) #4
  %13 = load ptr, ptr %6, align 8, !tbaa !7
  %14 = call ptr @EVP_CIPHER_CTX_get_cipher_data(ptr noundef %13)
  store ptr %14, ptr %10, align 8, !tbaa !12
  %15 = load ptr, ptr %8, align 8, !tbaa !10
  %16 = icmp eq ptr %15, null
  br i1 %16, label %17, label %21

17:                                               ; preds = %4
  %18 = load ptr, ptr %7, align 8, !tbaa !10
  %19 = icmp eq ptr %18, null
  br i1 %19, label %20, label %21

20:                                               ; preds = %17
  store i32 1, ptr %5, align 4
  store i32 1, ptr %11, align 4
  br label %101

21:                                               ; preds = %17, %4
  %22 = load ptr, ptr %7, align 8, !tbaa !10
  %23 = icmp ne ptr %22, null
  br i1 %23, label %24, label %73

24:                                               ; preds = %21
  call void @llvm.lifetime.start.p0(i64 4, ptr %12) #4
  %25 = load ptr, ptr %6, align 8, !tbaa !7
  %26 = call i32 @EVP_CIPHER_CTX_get_key_length(ptr noundef %25)
  %27 = mul nsw i32 %26, 8
  store i32 %27, ptr %12, align 4, !tbaa !3
  %28 = load i32, ptr %12, align 4, !tbaa !3
  %29 = icmp sle i32 %28, 0
  br i1 %29, label %30, label %31

30:                                               ; preds = %24
  call void @ERR_new()
  call void @ERR_set_debug(ptr noundef @.str, i32 noundef 236, ptr noundef @__func__.aesni_gcm_init_key)
  call void (i32, i32, ptr, ...) @ERR_set_error(i32 noundef 6, i32 noundef 130, ptr noundef null)
  store i32 0, ptr %5, align 4
  store i32 1, ptr %11, align 4
  br label %70

31:                                               ; preds = %24
  %32 = load ptr, ptr %7, align 8, !tbaa !10
  %33 = load i32, ptr %12, align 4, !tbaa !3
  %34 = load ptr, ptr %10, align 8, !tbaa !12
  %35 = getelementptr inbounds nuw %struct.EVP_AES_GCM_CTX, ptr %34, i32 0, i32 0
  %36 = call i32 @aesni_set_encrypt_key(ptr noundef %32, i32 noundef %33, ptr noundef %35)
  %37 = load ptr, ptr %10, align 8, !tbaa !12
  %38 = getelementptr inbounds nuw %struct.EVP_AES_GCM_CTX, ptr %37, i32 0, i32 3
  %39 = load ptr, ptr %10, align 8, !tbaa !12
  %40 = getelementptr inbounds nuw %struct.EVP_AES_GCM_CTX, ptr %39, i32 0, i32 0
  call void @CRYPTO_gcm128_init(ptr noundef %38, ptr noundef %40, ptr noundef @aesni_encrypt)
  %41 = load ptr, ptr %10, align 8, !tbaa !12
  %42 = getelementptr inbounds nuw %struct.EVP_AES_GCM_CTX, ptr %41, i32 0, i32 11
  store ptr @aesni_ctr32_encrypt_blocks, ptr %42, align 8, !tbaa !21
  %43 = load ptr, ptr %8, align 8, !tbaa !10
  %44 = icmp eq ptr %43, null
  br i1 %44, label %45, label %54

45:                                               ; preds = %31
  %46 = load ptr, ptr %10, align 8, !tbaa !12
  %47 = getelementptr inbounds nuw %struct.EVP_AES_GCM_CTX, ptr %46, i32 0, i32 2
  %48 = load i32, ptr %47, align 4, !tbaa !25
  %49 = icmp ne i32 %48, 0
  br i1 %49, label %50, label %54

50:                                               ; preds = %45
  %51 = load ptr, ptr %10, align 8, !tbaa !12
  %52 = getelementptr inbounds nuw %struct.EVP_AES_GCM_CTX, ptr %51, i32 0, i32 4
  %53 = load ptr, ptr %52, align 8, !tbaa !26
  store ptr %53, ptr %8, align 8, !tbaa !10
  br label %54

54:                                               ; preds = %50, %45, %31
  %55 = load ptr, ptr %8, align 8, !tbaa !10
  %56 = icmp ne ptr %55, null
  br i1 %56, label %57, label %67

57:                                               ; preds = %54
  %58 = load ptr, ptr %10, align 8, !tbaa !12
  %59 = getelementptr inbounds nuw %struct.EVP_AES_GCM_CTX, ptr %58, i32 0, i32 3
  %60 = load ptr, ptr %8, align 8, !tbaa !10
  %61 = load ptr, ptr %10, align 8, !tbaa !12
  %62 = getelementptr inbounds nuw %struct.EVP_AES_GCM_CTX, ptr %61, i32 0, i32 5
  %63 = load i32, ptr %62, align 8, !tbaa !27
  %64 = sext i32 %63 to i64
  call void @CRYPTO_gcm128_setiv(ptr noundef %59, ptr noundef %60, i64 noundef %64)
  %65 = load ptr, ptr %10, align 8, !tbaa !12
  %66 = getelementptr inbounds nuw %struct.EVP_AES_GCM_CTX, ptr %65, i32 0, i32 2
  store i32 1, ptr %66, align 4, !tbaa !25
  br label %67

67:                                               ; preds = %57, %54
  %68 = load ptr, ptr %10, align 8, !tbaa !12
  %69 = getelementptr inbounds nuw %struct.EVP_AES_GCM_CTX, ptr %68, i32 0, i32 1
  store i32 1, ptr %69, align 8, !tbaa !28
  store i32 0, ptr %11, align 4
  br label %70

70:                                               ; preds = %67, %30
  call void @llvm.lifetime.end.p0(i64 4, ptr %12) #4
  %71 = load i32, ptr %11, align 4
  switch i32 %71, label %101 [
    i32 0, label %72
  ]

72:                                               ; preds = %70
  br label %100

73:                                               ; preds = %21
  %74 = load ptr, ptr %10, align 8, !tbaa !12
  %75 = getelementptr inbounds nuw %struct.EVP_AES_GCM_CTX, ptr %74, i32 0, i32 1
  %76 = load i32, ptr %75, align 8, !tbaa !28
  %77 = icmp ne i32 %76, 0
  br i1 %77, label %78, label %86

78:                                               ; preds = %73
  %79 = load ptr, ptr %10, align 8, !tbaa !12
  %80 = getelementptr inbounds nuw %struct.EVP_AES_GCM_CTX, ptr %79, i32 0, i32 3
  %81 = load ptr, ptr %8, align 8, !tbaa !10
  %82 = load ptr, ptr %10, align 8, !tbaa !12
  %83 = getelementptr inbounds nuw %struct.EVP_AES_GCM_CTX, ptr %82, i32 0, i32 5
  %84 = load i32, ptr %83, align 8, !tbaa !27
  %85 = sext i32 %84 to i64
  call void @CRYPTO_gcm128_setiv(ptr noundef %80, ptr noundef %81, i64 noundef %85)
  br label %95

86:                                               ; preds = %73
  %87 = load ptr, ptr %10, align 8, !tbaa !12
  %88 = getelementptr inbounds nuw %struct.EVP_AES_GCM_CTX, ptr %87, i32 0, i32 4
  %89 = load ptr, ptr %88, align 8, !tbaa !26
  %90 = load ptr, ptr %8, align 8, !tbaa !10
  %91 = load ptr, ptr %10, align 8, !tbaa !12
  %92 = getelementptr inbounds nuw %struct.EVP_AES_GCM_CTX, ptr %91, i32 0, i32 5
  %93 = load i32, ptr %92, align 8, !tbaa !27
  %94 = sext i32 %93 to i64
  call void @llvm.memcpy.p0.p0.i64(ptr align 1 %89, ptr align 1 %90, i64 %94, i1 false)
  br label %95

95:                                               ; preds = %86, %78
  %96 = load ptr, ptr %10, align 8, !tbaa !12
  %97 = getelementptr inbounds nuw %struct.EVP_AES_GCM_CTX, ptr %96, i32 0, i32 2
  store i32 1, ptr %97, align 4, !tbaa !25
  %98 = load ptr, ptr %10, align 8, !tbaa !12
  %99 = getelementptr inbounds nuw %struct.EVP_AES_GCM_CTX, ptr %98, i32 0, i32 7
  store i32 0, ptr %99, align 8, !tbaa !29
  br label %100

100:                                              ; preds = %95, %72
  store i32 1, ptr %5, align 4
  store i32 1, ptr %11, align 4
  br label %101

101:                                              ; preds = %100, %70, %20
  call void @llvm.lifetime.end.p0(i64 8, ptr %10) #4
  %102 = load i32, ptr %5, align 4
  ret i32 %102
}