; Function Attrs: nounwind uwtable
define internal range(i32 0, 2) i32 @aesni_gcm_init_key(ptr noundef %0, ptr noundef %1, ptr noundef %2, i32 %3) #2 {
  %5 = tail call ptr @EVP_CIPHER_CTX_get_cipher_data(ptr noundef %0) #8
  %6 = icmp eq ptr %2, null
  %7 = icmp eq ptr %1, null
  %or.cond = and i1 %7, %6
  br i1 %or.cond, label %46, label %8

8:                                                ; preds = %4
  br i1 %7, label %29, label %9

9:                                                ; preds = %8
  %10 = tail call i32 @EVP_CIPHER_CTX_get_key_length(ptr noundef %0) #8
  %11 = icmp sgt i32 %10, 0
  br i1 %11, label %12, label %28

12:                                               ; preds = %9
  %13 = shl nsw i32 %10, 3
  %14 = tail call i32 @aesni_set_encrypt_key(ptr noundef nonnull %1, i32 noundef %13, ptr noundef %5) #8
  %15 = getelementptr inbounds nuw i8, ptr %5, i64 256
  tail call void @CRYPTO_gcm128_init(ptr noundef nonnull %15, ptr noundef %5, ptr noundef nonnull @aesni_encrypt) #8
  %16 = getelementptr inbounds nuw i8, ptr %5, i64 744
  store ptr @aesni_ctr32_encrypt_blocks, ptr %16, align 8, !tbaa !14
  br i1 %6, label %17, label %.thread42

17:                                               ; preds = %12
  %18 = getelementptr inbounds nuw i8, ptr %5, i64 252
  %19 = load i32, ptr %18, align 4, !tbaa !20
  %.not38 = icmp eq i32 %19, 0
  br i1 %.not38, label %.thread46, label %20

20:                                               ; preds = %17
  %21 = getelementptr inbounds nuw i8, ptr %5, i64 704
  %22 = load ptr, ptr %21, align 8, !tbaa !21
  %.not39 = icmp eq ptr %22, null
  br i1 %.not39, label %.thread46, label %.thread42

.thread42:                                        ; preds = %12, %20
  %.03345 = phi ptr [ %22, %20 ], [ %2, %12 ]
  %23 = getelementptr inbounds nuw i8, ptr %5, i64 712
  %24 = load i32, ptr %23, align 8, !tbaa !22
  %25 = sext i32 %24 to i64
  tail call void @CRYPTO_gcm128_setiv(ptr noundef nonnull %15, ptr noundef nonnull %.03345, i64 noundef %25) #8
  %26 = getelementptr inbounds nuw i8, ptr %5, i64 252
  store i32 1, ptr %26, align 4, !tbaa !20
  br label %.thread46

.thread46:                                        ; preds = %20, %.thread42, %17
  %27 = getelementptr inbounds nuw i8, ptr %5, i64 248
  store i32 1, ptr %27, align 8, !tbaa !23
  br label %46

28:                                               ; preds = %9
  tail call void @ERR_new() #8
  tail call void @ERR_set_debug(ptr noundef nonnull @.str, i32 noundef 236, ptr noundef nonnull @__func__.aesni_gcm_init_key) #8
  tail call void (i32, i32, ptr, ...) @ERR_set_error(i32 noundef 6, i32 noundef 130, ptr noundef null) #8
  br label %46

29:                                               ; preds = %8
  %30 = getelementptr inbounds nuw i8, ptr %5, i64 248
  %31 = load i32, ptr %30, align 8, !tbaa !23
  %.not37 = icmp eq i32 %31, 0
  br i1 %.not37, label %37, label %32

32:                                               ; preds = %29
  %33 = getelementptr inbounds nuw i8, ptr %5, i64 256
  %34 = getelementptr inbounds nuw i8, ptr %5, i64 712
  %35 = load i32, ptr %34, align 8, !tbaa !22
  %36 = sext i32 %35 to i64
  tail call void @CRYPTO_gcm128_setiv(ptr noundef nonnull %33, ptr noundef %2, i64 noundef %36) #8
  br label %43

37:                                               ; preds = %29
  %38 = getelementptr inbounds nuw i8, ptr %5, i64 704
  %39 = load ptr, ptr %38, align 8, !tbaa !21
  %40 = getelementptr inbounds nuw i8, ptr %5, i64 712
  %41 = load i32, ptr %40, align 8, !tbaa !22
  %42 = sext i32 %41 to i64
  tail call void @llvm.memcpy.p0.p0.i64(ptr align 1 %39, ptr align 1 %2, i64 %42, i1 false)
  br label %43

43:                                               ; preds = %37, %32
  %44 = getelementptr inbounds nuw i8, ptr %5, i64 252
  store i32 1, ptr %44, align 4, !tbaa !20
  %45 = getelementptr inbounds nuw i8, ptr %5, i64 720
  store i32 0, ptr %45, align 8, !tbaa !24
  br label %46

46:                                               ; preds = %43, %.thread46, %28, %4
  %.0 = phi i32 [ 0, %28 ], [ 1, %4 ], [ 1, %.thread46 ], [ 1, %43 ]
  ret i32 %.0
}